target datalayout = "e-m:e-p270:32:32-p271:32:32-p272:64:64-i64:64-i128:128-f80:128-n8:16:32:64-S128"
target triple = "x86_64-pc-linux-gnu"

%struct.QOSState = type { ptr, %struct.QGuestAllocator, ptr, ptr }
%struct.QGuestAllocator = type { i32, i64, i64, i32, ptr, ptr }
%struct.QOSOps = type { ptr, ptr, ptr, ptr }

; Function Attrs: nounwind sspstrong uwtable
define dso_local void @qtest_common_shutdown(ptr noundef %0) #0 {
  %2 = alloca ptr, align 8
  store ptr %0, ptr %2, align 8
  %3 = load ptr, ptr %2, align 8
  %4 = getelementptr inbounds nuw %struct.QOSState, ptr %3, i32 0, i32 3
  %5 = load ptr, ptr %4, align 8
  %6 = icmp ne ptr %5, null
  br i1 %6, label %7, label %31

7:                                                ; preds = %1
  %8 = load ptr, ptr %2, align 8
  %9 = getelementptr inbounds nuw %struct.QOSState, ptr %8, i32 0, i32 2
  %10 = load ptr, ptr %9, align 8
  %11 = icmp ne ptr %10, null
  br i1 %11, label %12, label %30

12:                                               ; preds = %7
  %13 = load ptr, ptr %2, align 8
  %14 = getelementptr inbounds nuw %struct.QOSState, ptr %13, i32 0, i32 3
  %15 = load ptr, ptr %14, align 8
  %16 = getelementptr inbounds nuw %struct.QOSOps, ptr %15, i32 0, i32 2
  %17 = load ptr, ptr %16, align 8
  %18 = icmp ne ptr %17, null
  br i1 %18, label %19, label %30

19:                                               ; preds = %12
  %20 = load ptr, ptr %2, align 8
  %21 = getelementptr inbounds nuw %struct.QOSState, ptr %20, i32 0, i32 3
  %22 = load ptr, ptr %21, align 8
  %23 = getelementptr inbounds nuw %struct.QOSOps, ptr %22, i32 0, i32 2
  %24 = load ptr, ptr %23, align 8
  %25 = load ptr, ptr %2, align 8
  %26 = getelementptr inbounds nuw %struct.QOSState, ptr %25, i32 0, i32 2
  %27 = load ptr, ptr %26, align 8
  call void %24(ptr noundef %27)
  %28 = load ptr, ptr %2, align 8
  %29 = getelementptr inbounds nuw %struct.QOSState, ptr %28, i32 0, i32 2
  store ptr null, ptr %29, align 8
  br label %30

30:                                               ; preds = %19, %12, %7
  br label %31

31:                                               ; preds = %30, %1
  %32 = load ptr, ptr %2, align 8
  %33 = getelementptr inbounds nuw %struct.QOSState, ptr %32, i32 0, i32 1
  call void @alloc_destroy(ptr noundef %33)
  %34 = load ptr, ptr %2, align 8
  %35 = getelementptr inbounds nuw %struct.QOSState, ptr %34, i32 0, i32 0
  %36 = load ptr, ptr %35, align 8
  call void @qtest_quit(ptr noundef %36)
  %37 = load ptr, ptr %2, align 8
  call void @g_free(ptr noundef %37)
  ret void
}

; Function Attrs: nounwind sspstrong uwtable
define dso_local void @qtest_shutdown(ptr noundef %0) #0 {
  %2 = alloca ptr, align 8
  store ptr %0, ptr %2, align 8
  %3 = load ptr, ptr %2, align 8
  %4 = getelementptr inbounds nuw %struct.QOSState, ptr %3, i32 0, i32 3
  %5 = load ptr, ptr %4, align 8
  %6 = icmp ne ptr %5, null
  br i1 %6, label %7, label %21

7:                                                ; preds = %1
  %8 = load ptr, ptr %2, align 8
  %9 = getelementptr inbounds nuw %struct.QOSState, ptr %8, i32 0, i32 3
  %10 = load ptr, ptr %9, align 8
  %11 = getelementptr inbounds nuw %struct.QOSOps, ptr %10, i32 0, i32 3
  %12 = load ptr, ptr %11, align 8
  %13 = icmp ne ptr %12, null
  br i1 %13, label %14, label %21

14:                                               ; preds = %7
  %15 = load ptr, ptr %2, align 8
  %16 = getelementptr inbounds nuw %struct.QOSState, ptr %15, i32 0, i32 3
  %17 = load ptr, ptr %16, align 8
  %18 = getelementptr inbounds nuw %struct.QOSOps, ptr %17, i32 0, i32 3
  %19 = load ptr, ptr %18, align 8
  %20 = load ptr, ptr %2, align 8
  call void %19(ptr noundef %20)
  br label %23

21:                                               ; preds = %7, %1
  %22 = load ptr, ptr %2, align 8
  call void @qtest_common_shutdown(ptr noundef %22)
  br label %23

23:                                               ; preds = %21, %14
  ret void
}