; Function Attrs: nounwind sspstrong uwtable
define dso_local void @qtest_shutdown(ptr noundef %0) local_unnamed_addr #0 {
  %2 = getelementptr inbounds nuw i8, ptr %0, i64 64
  %3 = load ptr, ptr %2, align 8
  %.not = icmp eq ptr %3, null
  br i1 %.not, label %qtest_common_shutdown.exit, label %4

4:                                                ; preds = %1
  %5 = getelementptr inbounds nuw i8, ptr %3, i64 24
  %6 = load ptr, ptr %5, align 8
  %.not6 = icmp eq ptr %6, null
  br i1 %.not6, label %8, label %7

7:                                                ; preds = %4
  tail call void %6(ptr noundef nonnull %0) #13
  br label %17

8:                                                ; preds = %4
  %9 = getelementptr inbounds nuw i8, ptr %0, i64 56
  %10 = load ptr, ptr %9, align 8
  %.not11.i = icmp eq ptr %10, null
  br i1 %.not11.i, label %qtest_common_shutdown.exit, label %11

11:                                               ; preds = %8
  %12 = getelementptr inbounds nuw i8, ptr %3, i64 16
  %13 = load ptr, ptr %12, align 8
  %.not12.i = icmp eq ptr %13, null
  br i1 %.not12.i, label %qtest_common_shutdown.exit, label %14

14:                                               ; preds = %11
  tail call void %13(ptr noundef nonnull %10) #13
  store ptr null, ptr %9, align 8
  br label %qtest_common_shutdown.exit

qtest_common_shutdown.exit:                       ; preds = %1, %8, %11, %14
  %15 = getelementptr inbounds nuw i8, ptr %0, i64 8
  tail call void @alloc_destroy(ptr noundef nonnull %15) #13
  %16 = load ptr, ptr %0, align 8
  tail call void @qtest_quit(ptr noundef %16) #13
  tail call void @g_free(ptr noundef nonnull %0) #13
  br label %17

17:                                               ; preds = %qtest_common_shutdown.exit, %7
  ret void
}